; ModuleID = 'source-C-CXX/18/3053.c'
source_filename = "source-C-CXX/18/3053.c"
target datalayout = "e-m:e-p270:32:32-p271:32:32-p272:64:64-i64:64-f80:128-n8:16:32:64-S128"
target triple = "x86_64-pc-linux-gnu"

@.str = private unnamed_addr constant [3 x i8] c"%s\00", align 1
@.str.1 = private unnamed_addr constant [4 x i8] c" %s\00", align 1

; Function Attrs: nounwind sspstrong uwtable
define dso_local i32 @main() local_unnamed_addr #0 {
  %1 = alloca [100 x i8], align 16
  %2 = alloca [100 x i8], align 16
  %3 = alloca [100 x i8], align 16
  %4 = alloca [100 x [100 x i8]], align 16
  %5 = getelementptr inbounds [100 x i8], [100 x i8]* %1, i64 0, i64 0
  call void @llvm.lifetime.start.p0i8(i64 100, i8* nonnull %5) #6
  %6 = getelementptr inbounds [100 x i8], [100 x i8]* %2, i64 0, i64 0
  call void @llvm.lifetime.start.p0i8(i64 100, i8* nonnull %6) #6
  %7 = getelementptr inbounds [100 x i8], [100 x i8]* %3, i64 0, i64 0
  call void @llvm.lifetime.start.p0i8(i64 100, i8* nonnull %7) #6
  %8 = getelementptr inbounds [100 x [100 x i8]], [100 x [100 x i8]]* %4, i64 0, i64 0, i64 0
  call void @llvm.lifetime.start.p0i8(i64 10000, i8* nonnull %8) #6
  %9 = call i32 (i8*, ...) bitcast (i32 (...)* @gets to i32 (i8*, ...)*)(i8* nonnull %5) #6
  %10 = call i32 (i8*, ...) @__isoc99_scanf(i8* getelementptr inbounds ([3 x i8], [3 x i8]* @.str, i64 0, i64 0), i8* nonnull %6)
  %11 = call i32 (i8*, ...) @__isoc99_scanf(i8* getelementptr inbounds ([3 x i8], [3 x i8]* @.str, i64 0, i64 0), i8* nonnull %7)
  br label %12

12:                                               ; preds = %47, %0
  %13 = phi i64 [ %50, %47 ], [ 0, %0 ]
  %14 = phi i32 [ %49, %47 ], [ 0, %0 ]
  %15 = phi i32 [ %48, %47 ], [ -1, %0 ]
  %16 = getelementptr inbounds [100 x i8], [100 x i8]* %1, i64 0, i64 %13
  %17 = load i8, i8* %16, align 1, !tbaa !5
  switch i8 %17, label %47 [
    i8 32, label %18
    i8 0, label %31
  ]

18:                                               ; preds = %12
  %19 = sext i32 %14 to i64
  %20 = getelementptr inbounds [100 x [100 x i8]], [100 x [100 x i8]]* %4, i64 0, i64 %19, i64 0
  %21 = sext i32 %15 to i64
  %22 = getelementptr inbounds [100 x i8], [100 x i8]* %1, i64 0, i64 %21
  %23 = getelementptr inbounds i8, i8* %22, i64 1
  %24 = xor i32 %15, -1
  %25 = trunc i64 %13 to i32
  %26 = add i32 %25, %24
  %27 = sext i32 %26 to i64
  %28 = call i8* @strncpy(i8* noundef nonnull %20, i8* nonnull %23, i64 %27) #6
  %29 = getelementptr inbounds [100 x [100 x i8]], [100 x [100 x i8]]* %4, i64 0, i64 %19, i64 %27
  store i8 0, i8* %29, align 1, !tbaa !5
  %30 = add nsw i32 %14, 1
  br label %47

31:                                               ; preds = %12
  %32 = trunc i64 %13 to i32
  %33 = sext i32 %14 to i64
  %34 = getelementptr inbounds [100 x [100 x i8]], [100 x [100 x i8]]* %4, i64 0, i64 %33, i64 0
  %35 = sext i32 %15 to i64
  %36 = getelementptr inbounds [100 x i8], [100 x i8]* %1, i64 0, i64 %35
  %37 = getelementptr inbounds i8, i8* %36, i64 1
  %38 = xor i32 %15, -1
  %39 = add i32 %32, %38
  %40 = sext i32 %39 to i64
  %41 = call i8* @strncpy(i8* noundef nonnull %34, i8* nonnull %37, i64 %40) #6
  %42 = getelementptr inbounds [100 x [100 x i8]], [100 x [100 x i8]]* %4, i64 0, i64 %33, i64 %40
  store i8 0, i8* %42, align 1, !tbaa !5
  %43 = icmp slt i32 %14, 0
  br i1 %43, label %73, label %44

44:                                               ; preds = %31
  %45 = add nuw i32 %14, 1
  %46 = zext i32 %45 to i64
  br label %57

47:                                               ; preds = %12, %18
  %48 = phi i32 [ %25, %18 ], [ %15, %12 ]
  %49 = phi i32 [ %30, %18 ], [ %14, %12 ]
  %50 = add nuw i64 %13, 1
  br label %12

51:                                               ; preds = %64
  br i1 %43, label %73, label %52

52:                                               ; preds = %51
  %53 = add nuw i32 %14, 1
  %54 = zext i32 %53 to i64
  %55 = call i32 (i8*, ...) @printf(i8* nonnull dereferenceable(1) getelementptr inbounds ([3 x i8], [3 x i8]* @.str, i64 0, i64 0), i8* nonnull %8)
  %56 = icmp eq i32 %14, 0
  br i1 %56, label %73, label %67

57:                                               ; preds = %44, %64
  %58 = phi i64 [ 0, %44 ], [ %65, %64 ]
  %59 = getelementptr inbounds [100 x [100 x i8]], [100 x [100 x i8]]* %4, i64 0, i64 %58, i64 0
  %60 = call i32 @strcmp(i8* noundef nonnull %59, i8* noundef nonnull %6) #7
  %61 = icmp eq i32 %60, 0
  br i1 %61, label %62, label %64

62:                                               ; preds = %57
  %63 = call i8* @strcpy(i8* noundef nonnull %59, i8* noundef nonnull %7) #6
  br label %64

64:                                               ; preds = %57, %62
  %65 = add nuw nsw i64 %58, 1
  %66 = icmp eq i64 %65, %46
  br i1 %66, label %51, label %57, !llvm.loop !8

67:                                               ; preds = %52, %67
  %68 = phi i64 [ %71, %67 ], [ 1, %52 ]
  %69 = getelementptr inbounds [100 x [100 x i8]], [100 x [100 x i8]]* %4, i64 0, i64 %68, i64 0
  %70 = call i32 (i8*, ...) @printf(i8* nonnull dereferenceable(1) getelementptr inbounds ([4 x i8], [4 x i8]* @.str.1, i64 0, i64 0), i8* nonnull %69)
  %71 = add nuw nsw i64 %68, 1
  %72 = icmp eq i64 %71, %54
  br i1 %72, label %73, label %67, !llvm.loop !10

73:                                               ; preds = %67, %31, %52, %51
  call void @llvm.lifetime.end.p0i8(i64 10000, i8* nonnull %8) #6
  call void @llvm.lifetime.end.p0i8(i64 100, i8* nonnull %7) #6
  call void @llvm.lifetime.end.p0i8(i64 100, i8* nonnull %6) #6
  call void @llvm.lifetime.end.p0i8(i64 100, i8* nonnull %5) #6
  ret i32 0
}

; Function Attrs: argmemonly mustprogress nofree nosync nounwind willreturn
declare void @llvm.lifetime.start.p0i8(i64 immarg, i8* nocapture) #1

declare i32 @gets(...) local_unnamed_addr #2

; Function Attrs: nofree nounwind
declare noundef i32 @__isoc99_scanf(i8* nocapture noundef readonly, ...) local_unnamed_addr #3

; Function Attrs: argmemonly mustprogress nofree nounwind willreturn
declare i8* @strncpy(i8* noalias returned writeonly, i8* noalias nocapture readonly, i64) local_unnamed_addr #4

; Function Attrs: argmemonly mustprogress nofree nounwind readonly willreturn
declare i32 @strcmp(i8* nocapture, i8* nocapture) local_unnamed_addr #5

; Function Attrs: argmemonly mustprogress nofree nounwind willreturn
declare i8* @strcpy(i8* noalias returned writeonly, i8* noalias nocapture readonly) local_unnamed_addr #4

; Function Attrs: nofree nounwind
declare noundef i32 @printf(i8* nocapture noundef readonly, ...) local_unnamed_addr #3

; Function Attrs: argmemonly mustprogress nofree nosync nounwind willreturn
declare void @llvm.lifetime.end.p0i8(i64 immarg, i8* nocapture) #1


!llvm.module.flags = !{!0, !1, !2, !3}
!llvm.ident = !{!4}

!0 = !{i32 1, !"wchar_size", i32 4}
!1 = !{i32 7, !"PIC Level", i32 2}
!2 = !{i32 7, !"PIE Level", i32 2}
!3 = !{i32 7, !"uwtable", i32 1}
!4 = !{!"clang version 13.0.0"}
!5 = !{!6, !6, i64 0}
!6 = !{!"omnipotent char", !7, i64 0}
!7 = !{!"Simple C/C++ TBAA"}
!8 = distinct !{!8, !9}
!9 = !{!"llvm.loop.mustprogress"}
!10 = distinct !{!10, !9, !11}
!11 = !{!"llvm.loop.peeled.count", i32 1}
